	.syntax unified
	.cpu cortex-m3
	.fpu softvfp
	.eabi_attribute 20, 1
	.eabi_attribute 21, 1
	.eabi_attribute 23, 3
	.eabi_attribute 24, 1
	.eabi_attribute 25, 1
	.eabi_attribute 26, 1
	.eabi_attribute 30, 2
	.eabi_attribute 18, 4
	.thumb
	.file	"cpu.c"
	.text
.Ltext0:
	.align	2
	.global	timer_init
	.thumb
	.thumb_func
	.type	timer_init, %function
timer_init:
.LFB32:
	.file 1 "cpu.c"
	.loc 1 31 0
	@ args = 0, pretend = 0, frame = 0
	@ frame_needed = 0, uses_anonymous_args = 0
	@ link register save eliminated.
	@ lr needed for prologue
	.loc 1 33 0
	movs	r0, #0
	bx	lr
.LFE32:
	.size	timer_init, .-timer_init
	.align	2
	.global	dram_init
	.thumb
	.thumb_func
	.type	dram_init, %function
dram_init:
.LFB33:
	.loc 1 36 0
	@ args = 0, pretend = 0, frame = 0
	@ frame_needed = 0, uses_anonymous_args = 0
	@ link register save eliminated.
	@ lr needed for prologue
	.loc 1 38 0
	movs	r0, #0
	bx	lr
.LFE33:
	.size	dram_init, .-dram_init
	.align	2
	.global	print_cpuinfo
	.thumb
	.thumb_func
	.type	print_cpuinfo, %function
print_cpuinfo:
.LFB34:
	.loc 1 41 0
	@ args = 0, pretend = 0, frame = 0
	@ frame_needed = 0, uses_anonymous_args = 0
	@ link register save eliminated.
	@ lr needed for prologue
	.loc 1 43 0
	movs	r0, #0
	bx	lr
.LFE34:
	.size	print_cpuinfo, .-print_cpuinfo
	.align	2
	.global	checkboard
	.thumb
	.thumb_func
	.type	checkboard, %function
checkboard:
.LFB35:
	.loc 1 46 0
	@ args = 0, pretend = 0, frame = 0
	@ frame_needed = 0, uses_anonymous_args = 0
	@ link register save eliminated.
	@ lr needed for prologue
	.loc 1 48 0
	movs	r0, #0
	bx	lr
.LFE35:
	.size	checkboard, .-checkboard
	.align	2
	.global	flash_init
	.thumb
	.thumb_func
	.type	flash_init, %function
flash_init:
.LFB36:
	.loc 1 51 0
	@ args = 0, pretend = 0, frame = 0
	@ frame_needed = 0, uses_anonymous_args = 0
	@ link register save eliminated.
	@ lr needed for prologue
	.loc 1 53 0
	movs	r0, #0
	bx	lr
.LFE36:
	.size	flash_init, .-flash_init
	.section	.ramcode,"ax",%progbits
	.align	2
	.global	test_func
	.thumb
	.thumb_func
	.type	test_func, %function
test_func:
.LFB37:
	.loc 1 58 0
	@ args = 0, pretend = 0, frame = 0
	@ frame_needed = 0, uses_anonymous_args = 0
	.loc 1 59 0
	movw	r0, #:lower16:.LC0
	movw	r3, #:lower16:my_puts
	.loc 1 58 0
	push	{r4, lr}
.LCFI0:
	.loc 1 59 0
	movt	r3, #:upper16:my_puts
	movt	r0, #:upper16:.LC0
	blx	r3
	.loc 1 60 0
	pop	{r4, pc}
.LFE37:
	.size	test_func, .-test_func
	.text
	.align	2
	.global	arch_cpu_init
	.thumb
	.thumb_func
	.type	arch_cpu_init, %function
arch_cpu_init:
.LFB31:
	.loc 1 6 0
	@ args = 0, pretend = 0, frame = 0
	@ frame_needed = 0, uses_anonymous_args = 0
	push	{r4, lr}
.LCFI1:
	.loc 1 11 0
	bl	SystemCoreClockUpdate
	.loc 1 17 0
	movw	r2, #:lower16:-536600576
	movt	r2, #:upper16:-536600576
	ldr	r3, [r2, #48]
	.loc 1 18 0
	movw	r1, #:lower16:1073762304
	.loc 1 17 0
	bic	r3, r3, #64
	str	r3, [r2, #48]
	.loc 1 18 0
	movt	r1, #:upper16:1073762304
	movs	r4, #0
	.loc 1 19 0
	movs	r3, #3
	.loc 1 18 0
	str	r4, [r1, #84]
	.loc 1 25 0
	mov	r0, #115200
	.loc 1 19 0
	str	r3, [r1, #12]
	.loc 1 25 0
	bl	my_uart_init
	.loc 1 28 0
	mov	r0, r4
	pop	{r4, pc}
.LFE31:
	.size	arch_cpu_init, .-arch_cpu_init
	.section	.rodata.str1.4,"aMS",%progbits,1
	.align	2
.LC0:
	.ascii	"Hello\012\000"
	.section	.debug_frame,"",%progbits
.Lframe0:
	.4byte	.LECIE0-.LSCIE0
.LSCIE0:
	.4byte	0xffffffff
	.byte	0x1
	.ascii	"\000"
	.uleb128 0x1
	.sleb128 -4
	.byte	0xe
	.byte	0xc
	.uleb128 0xd
	.uleb128 0x0
	.align	2
.LECIE0:
.LSFDE0:
	.4byte	.LEFDE0-.LASFDE0
.LASFDE0:
	.4byte	.Lframe0
	.4byte	.LFB32
	.4byte	.LFE32-.LFB32
	.align	2
.LEFDE0:
.LSFDE2:
	.4byte	.LEFDE2-.LASFDE2
.LASFDE2:
	.4byte	.Lframe0
	.4byte	.LFB33
	.4byte	.LFE33-.LFB33
	.align	2
.LEFDE2:
.LSFDE4:
	.4byte	.LEFDE4-.LASFDE4
.LASFDE4:
	.4byte	.Lframe0
	.4byte	.LFB34
	.4byte	.LFE34-.LFB34
	.align	2
.LEFDE4:
.LSFDE6:
	.4byte	.LEFDE6-.LASFDE6
.LASFDE6:
	.4byte	.Lframe0
	.4byte	.LFB35
	.4byte	.LFE35-.LFB35
	.align	2
.LEFDE6:
.LSFDE8:
	.4byte	.LEFDE8-.LASFDE8
.LASFDE8:
	.4byte	.Lframe0
	.4byte	.LFB36
	.4byte	.LFE36-.LFB36
	.align	2
.LEFDE8:
.LSFDE10:
	.4byte	.LEFDE10-.LASFDE10
.LASFDE10:
	.4byte	.Lframe0
	.4byte	.LFB37
	.4byte	.LFE37-.LFB37
	.byte	0x4
	.4byte	.LCFI0-.LFB37
	.byte	0xe
	.uleb128 0x8
	.byte	0x8e
	.uleb128 0x1
	.byte	0x84
	.uleb128 0x2
	.align	2
.LEFDE10:
.LSFDE12:
	.4byte	.LEFDE12-.LASFDE12
.LASFDE12:
	.4byte	.Lframe0
	.4byte	.LFB31
	.4byte	.LFE31-.LFB31
	.byte	0x4
	.4byte	.LCFI1-.LFB31
	.byte	0xe
	.uleb128 0x8
	.byte	0x8e
	.uleb128 0x1
	.byte	0x84
	.uleb128 0x2
	.align	2
.LEFDE12:
	.text
.Letext0: