	.syntax unified
	.cpu cortex-m3
	.fpu softvfp
	.eabi_attribute 20, 1
	.eabi_attribute 21, 1
	.eabi_attribute 23, 3
	.eabi_attribute 24, 1
	.eabi_attribute 25, 1
	.eabi_attribute 26, 1
	.eabi_attribute 30, 2
	.eabi_attribute 18, 4
	.thumb
	.file	"nvm.c"
	.text
.Ltext0:
	.section	.ramcode,"ax",%progbits
	.align	2
	.thumb
	.thumb_func
	.type	my_putc, %function
my_putc:
.LFB31:
	.file 1 "nvm.c"
	.loc 1 39 0
	@ args = 0, pretend = 0, frame = 0
	@ frame_needed = 0, uses_anonymous_args = 0
.LVL0:
	.loc 1 47 0
	ldr	r1, .L13
	movw	r3, #:lower16:1125899907
	ldr	r2, [r1, #0]
	movt	r3, #:upper16:1125899907
	umull	r1, r2, r3, r2
	.loc 1 39 0
	push	{lr}
.LCFI0:
	.loc 1 47 0
	lsrs	r2, r2, #18
	lsls	r3, r2, #2
	.loc 1 39 0
	mov	lr, r0
	.loc 1 47 0
	adds	r0, r3, r2
.LVL1:
	.loc 1 44 0
	mov	r3, #1073741824
	ldrb	r2, [r3, #20]	@ zero_extendqisi2
	.loc 1 47 0
	movw	r1, #999
.LVL2:
	.loc 1 44 0
	tst	r2, #32
	bne	.L3
.L12:
	.loc 1 47 0
	movw	r3, #:lower16:1073762304
	movt	r3, #:upper16:1073762304
	str	r0, [r3, #4]
.L5:
	.loc 1 48 0
	movw	r3, #:lower16:1073762304
	movt	r3, #:upper16:1073762304
	ldr	r2, [r3, #0]
	cmp	r2, #0
	bne	.L5
	.loc 1 43 0
	cbz	r1, .L3
	.loc 1 44 0
	mov	r3, #1073741824
	ldrb	r2, [r3, #20]	@ zero_extendqisi2
	.loc 1 43 0
	subs	r1, r1, #1
	.loc 1 44 0
	tst	r2, #32
	beq	.L12
.L3:
	.loc 1 51 0
	uxtb	r2, lr
	mov	r3, #1073741824
	strb	r2, [r3, #0]
	.loc 1 52 0
	pop	{pc}
.L14:
	.align	2
.L13:
	.word	g_FrequencyPCLK0
.LFE31:
	.size	my_putc, .-my_putc
	.align	2
	.thumb
	.thumb_func
	.type	mss_nvm_exec_cmd, %function
mss_nvm_exec_cmd:
.LFB32:
	.loc 1 56 0
	@ args = 0, pretend = 0, frame = 0
	@ frame_needed = 0, uses_anonymous_args = 0
.LVL3:
	.loc 1 66 0
	movw	r3, #:lower16:1048448
	movt	r3, #:upper16:1048448
	and	r3, r0, r3
	.loc 1 56 0
	push	{r4, r5, r6, lr}
.LCFI1:
	.loc 1 63 0
	movw	r4, #:lower16:1611661312
	.loc 1 66 0
	orrs	r1, r1, r3
.LVL4:
	.loc 1 63 0
	movt	r4, #:upper16:1611661312
	mov	r2, #-1
	str	r2, [r4, #0]
	.loc 1 66 0
	str	r1, [r4, #4]
	.loc 1 79 0
	ldr	r1, .L34
	movw	r3, #:lower16:1125899907
	ldr	r2, [r1, #0]
	movt	r3, #:upper16:1125899907
	umull	r1, r2, r3, r2
	lsrs	r2, r2, #18
	lsls	r3, r2, #2
	adds	r5, r3, r2
	movs	r0, #0
.LVL5:
.L16:
	.loc 1 74 0
	movw	r3, #:lower16:1611661312
	movt	r3, #:upper16:1611661312
	ldr	r1, [r3, #0]
	.loc 1 75 0
	ands	r4, r1, #65537
	beq	.L17
	.loc 1 79 0
	movw	r3, #:lower16:1073762304
	movt	r3, #:upper16:1073762304
	str	r5, [r3, #4]
.L19:
	.loc 1 80 0
	movw	r3, #:lower16:1073762304
	movt	r3, #:upper16:1073762304
	ldr	r2, [r3, #0]
	cmp	r2, #0
	bne	.L19
	.loc 1 73 0
	adds	r0, r0, #1
	cmp	r0, #1000
	bne	.L16
	ldr	r3, .L34+4
	str	r1, [r3, #0]
	.loc 1 84 0
	cbz	r4, .L25
	.loc 1 85 0
	movs	r0, #97
.LVL6:
	bl	my_putc
	mov	r0, #-1
	b	.L24
.LVL7:
.L17:
	.loc 1 98 0
	ldr	r3, .L34+4
	str	r1, [r3, #0]
.L25:
	.loc 1 97 0
	movw	r0, #:lower16:50332416
.LVL8:
	movt	r0, #:upper16:50332416
	and	r0, r1, r0
	cbnz	r0, .L33
.L24:
	.loc 1 111 0
	pop	{r4, r5, r6, pc}
.L33:
	.loc 1 98 0
	movs	r0, #98
	bl	my_putc
	mov	r0, #-1
	b	.L24
.L35:
	.align	2
.L34:
	.word	g_FrequencyPCLK0
	.word	.LANCHOR0
.LFE32:
	.size	mss_nvm_exec_cmd, .-mss_nvm_exec_cmd
	.align	2
	.global	nvm_write
	.thumb
	.thumb_func
	.type	nvm_write, %function
nvm_write:
.LFB33:
	.loc 1 121 0
	@ args = 0, pretend = 0, frame = 0
	@ frame_needed = 0, uses_anonymous_args = 0
.LVL9:
	.loc 1 127 0
	cmp	r0, #262144
	.loc 1 121 0
	push	{r4, r5, r6, r7, r8, r9, sl, lr}
.LCFI2:
	.loc 1 121 0
	mov	r9, r1
	mov	r7, r2
	.loc 1 127 0
	bhi	.L58
.LVL10:
	.loc 1 137 0
	cmp	r2, #0
	beq	.L59
.LVL11:
	.loc 1 122 0
	mov	r8, #0
.LVL12:
	add	r4, r0, #1610612736
.LVL13:
	mov	r6, r8
	b	.L42
.LVL14:
.L60:
	.loc 1 150 0
	adds	r3, r5, #1
	uxth	r3, r3
.LVL15:
	.loc 1 152 0
	adds	r6, r6, #1
	.loc 1 137 0
	cmp	r7, r3
	bls	.L57
.LVL16:
.L42:
	.loc 1 122 0
	uxth	r5, r6
	.loc 1 138 0
	cbz	r5, .L43
	tst	r4, #127
	bne	.L45
.L43:
	.loc 1 140 0
	mov	r0, r4
.LVL17:
	mov	r1, #33554432
	bl	mss_nvm_exec_cmd
	.loc 1 141 0
	cmp	r0, #0
	blt	.L57
.LVL18:
.L45:
	.loc 1 147 0
	ldrb	r3, [r6, r9]	@ zero_extendqisi2
	.loc 1 150 0
	subs	r2, r7, #1
	cmp	r6, r2
	.loc 1 147 0
	strb	r3, [r4], #1
	.loc 1 150 0
	beq	.L47
	tst	r4, #127
	bne	.L60
.L47:
	.loc 1 151 0
	subs	r0, r4, #1
.LVL19:
	mov	r1, #268435456
	bl	mss_nvm_exec_cmd
	.loc 1 152 0
	cmp	r0, #0
	blt	.L57
	adds	r3, r5, #1
	uxth	r8, r3
	mov	r3, r8
	adds	r6, r6, #1
	.loc 1 137 0
	cmp	r7, r3
	bhi	.L42
.LVL20:
.L57:
	mov	r0, r8
.LVL21:
.L39:
	.loc 1 160 0
	pop	{r4, r5, r6, r7, r8, r9, sl, pc}
.LVL22:
.L58:
	.loc 1 127 0
	movs	r0, #0
.LVL23:
	b	.L39
.LVL24:
.L59:
	.loc 1 137 0
	mov	r0, r2
.LVL25:
	b	.L39
.LFE33:
	.size	nvm_write, .-nvm_write
	.text
	.align	2
	.global	nvm_init
	.thumb
	.thumb_func
	.type	nvm_init, %function
nvm_init:
.LFB35:
	.loc 1 172 0
	@ args = 0, pretend = 0, frame = 0
	@ frame_needed = 0, uses_anonymous_args = 0
	@ link register save eliminated.
	.loc 1 174 0
	movw	r3, #:lower16:1611661312
	movt	r3, #:upper16:1611661312
	movs	r2, #0
	str	r2, [r3, #8]
	.loc 1 172 0
	@ lr needed for prologue
	.loc 1 177 0
	str	r2, [r3, #16]
	.loc 1 178 0
	str	r2, [r3, #20]
	.loc 1 181 0
	str	r2, [r3, #36]
	.loc 1 184 0
	str	r2, [r3, #0]
	.loc 1 185 0
	bx	lr
.LFE35:
	.size	nvm_init, .-nvm_init
	.align	2
	.global	nvm_read
	.thumb
	.thumb_func
	.type	nvm_read, %function
nvm_read:
.LFB34:
	.loc 1 165 0
	@ args = 0, pretend = 0, frame = 0
	@ frame_needed = 0, uses_anonymous_args = 0
.LVL26:
	mov	r3, r0
	push	{r4, lr}
.LCFI3:
	.loc 1 166 0
	mov	r0, r1
.LVL27:
	.loc 1 165 0
	mov	r4, r2
	.loc 1 166 0
	mov	r1, r3
.LVL28:
	bl	memcpy
.LVL29:
	.loc 1 168 0
	mov	r0, r4
	pop	{r4, pc}
.LFE34:
	.size	nvm_read, .-nvm_read
	.bss
	.align	2
	.set	.LANCHOR0,. + 0
	.type	status.2439, %object
	.size	status.2439, 4
status.2439:
	.space	4
	.section	.debug_frame,"",%progbits
.Lframe0:
	.4byte	.LECIE0-.LSCIE0
.LSCIE0:
	.4byte	0xffffffff
	.byte	0x1
	.ascii	"\000"
	.uleb128 0x1
	.sleb128 -4
	.byte	0xe
	.byte	0xc
	.uleb128 0xd
	.uleb128 0x0
	.align	2
.LECIE0:
.LSFDE0:
	.4byte	.LEFDE0-.LASFDE0
.LASFDE0:
	.4byte	.Lframe0
	.4byte	.LFB31
	.4byte	.LFE31-.LFB31
	.byte	0x4
	.4byte	.LCFI0-.LFB31
	.byte	0xe
	.uleb128 0x4
	.byte	0x8e
	.uleb128 0x1
	.align	2
.LEFDE0:
.LSFDE2:
	.4byte	.LEFDE2-.LASFDE2
.LASFDE2:
	.4byte	.Lframe0
	.4byte	.LFB32
	.4byte	.LFE32-.LFB32
	.byte	0x4
	.4byte	.LCFI1-.LFB32
	.byte	0xe
	.uleb128 0x10
	.byte	0x8e
	.uleb128 0x1
	.byte	0x86
	.uleb128 0x2
	.byte	0x85
	.uleb128 0x3
	.byte	0x84
	.uleb128 0x4
	.align	2
.LEFDE2:
.LSFDE4:
	.4byte	.LEFDE4-.LASFDE4
.LASFDE4:
	.4byte	.Lframe0
	.4byte	.LFB33
	.4byte	.LFE33-.LFB33
	.byte	0x4
	.4byte	.LCFI2-.LFB33
	.byte	0xe
	.uleb128 0x20
	.byte	0x8e
	.uleb128 0x1
	.byte	0x8a
	.uleb128 0x2
	.byte	0x89
	.uleb128 0x3
	.byte	0x88
	.uleb128 0x4
	.byte	0x87
	.uleb128 0x5
	.byte	0x86
	.uleb128 0x6
	.byte	0x85
	.uleb128 0x7
	.byte	0x84
	.uleb128 0x8
	.align	2
.LEFDE4:
.LSFDE6:
	.4byte	.LEFDE6-.LASFDE6
.LASFDE6:
	.4byte	.Lframe0
	.4byte	.LFB35
	.4byte	.LFE35-.LFB35
	.align	2
.LEFDE6:
.LSFDE8:
	.4byte	.LEFDE8-.LASFDE8
.LASFDE8:
	.4byte	.Lframe0
	.4byte	.LFB34
	.4byte	.LFE34-.LFB34
	.byte	0x4
	.4byte	.LCFI3-.LFB34
	.byte	0xe
	.uleb128 0x8
	.byte	0x8e
	.uleb128 0x1
	.byte	0x84
	.uleb128 0x2
	.align	2
.LEFDE8:
	.text
.Letext0: